target datalayout = "e-m:e-p270:32:32-p271:32:32-p272:64:64-i64:64-i128:128-f80:128-n8:16:32:64-S128"
target triple = "x86_64-pc-linux-gnu"

%class.anon = type { i8 }

@.str.1 = private unnamed_addr constant [131 x i8] c"generated/home/dtcxzyw/WorkSpace/Projects/compilers/llvm-opt-benchmark/bench/gromacs/gromacs/src/gromacs/mdrunutility/multisim.cpp\00", align 1
@TMPI_COMM_WORLD = external global ptr, align 8
@.str.15 = private unnamed_addr constant [64 x i8] c"communicator == MPI_COMM_NULL || communicator == MPI_COMM_WORLD\00", align 1
@.str.16 = private unnamed_addr constant [21 x i8] c"Invalid communicator\00", align 1
@"__PRETTY_FUNCTION__._ZZ24findIsSimulationMainRankPK14gmx_multisim_tP10tmpi_comm_ENK3$_0clEv" = private unnamed_addr constant [103 x i8] c"auto findIsSimulationMainRank(const gmx_multisim_t *, MPI_Comm)::(anonymous class)::operator()() const\00", align 1

; Function Attrs: mustprogress uwtable
define internal void @"_ZZ24findIsSimulationMainRankPK14gmx_multisim_tP10tmpi_comm_ENK3$_0clEv"(ptr noundef nonnull align 1 dereferenceable(1) %0) #0 align 2 {
  %2 = alloca ptr, align 8
  store ptr %0, ptr %2, align 8
  call void @_ZN3gmx8internal13assertHandlerEPKcS2_S2_S2_i(ptr noundef @.str.15, ptr noundef @.str.16, ptr noundef @"__PRETTY_FUNCTION__._ZZ24findIsSimulationMainRankPK14gmx_multisim_tP10tmpi_comm_ENK3$_0clEv", ptr noundef @.str.1, i32 noundef 364) #11
  unreachable
}

; Function Attrs: mustprogress uwtable
define noundef zeroext i1 @_Z24findIsSimulationMainRankPK14gmx_multisim_tP10tmpi_comm_(ptr noundef %0, ptr noundef %1) #0 {
  %3 = alloca ptr, align 8
  %4 = alloca ptr, align 8
  %5 = alloca %class.anon, align 1
  store ptr %0, ptr %3, align 8
  store ptr %1, ptr %4, align 8
  %6 = load ptr, ptr %4, align 8
  %7 = icmp eq ptr %6, null
  br i1 %7, label %12, label %8

8:                                                ; preds = %2
  %9 = load ptr, ptr %4, align 8
  %10 = load ptr, ptr @TMPI_COMM_WORLD, align 8
  %11 = icmp eq ptr %9, %10
  br i1 %11, label %12, label %13

12:                                               ; preds = %8, %2
  br label %14

13:                                               ; preds = %8
  call void @"_ZZ24findIsSimulationMainRankPK14gmx_multisim_tP10tmpi_comm_ENK3$_0clEv"(ptr noundef nonnull align 1 dereferenceable(1) %5)
  br label %14

14:                                               ; preds = %13, %12
  %15 = load ptr, ptr %4, align 8
  %16 = icmp eq ptr %15, null
  ret i1 %16
}