; Function Attrs: mustprogress uwtable
define noundef zeroext i1 @_Z24findIsSimulationMainRankPK14gmx_multisim_tP10tmpi_comm_(ptr nocapture noundef readnone %0, ptr noundef readnone %1) local_unnamed_addr #0 {
  %3 = icmp eq ptr %1, null
  %4 = load ptr, ptr @TMPI_COMM_WORLD, align 8
  %5 = icmp eq ptr %4, %1
  %or.cond = select i1 %3, i1 true, i1 %5
  br i1 %or.cond, label %7, label %6

6:                                                ; preds = %2
  tail call void @_ZN3gmx8internal13assertHandlerEPKcS2_S2_S2_i(ptr noundef nonnull @.str.15, ptr noundef nonnull @.str.16, ptr noundef nonnull @"__PRETTY_FUNCTION__._ZZ24findIsSimulationMainRankPK14gmx_multisim_tP10tmpi_comm_ENK3$_0clEv", ptr noundef nonnull @.str.1, i32 noundef 364) #20
  unreachable

7:                                                ; preds = %2
  ret i1 %3
}